target datalayout = "e-m:e-p270:32:32-p271:32:32-p272:64:64-i64:64-i128:128-f80:128-n8:16:32:64-S128"
target triple = "x86_64-pc-linux-gnu"

; Function Attrs: nounwind uwtable
define internal i32 @dissect_saphdb(ptr noundef %0, ptr noundef %1, ptr noundef %2, ptr noundef %3) #0 {
  %5 = alloca i32, align 4
  %6 = alloca ptr, align 8
  %7 = alloca ptr, align 8
  %8 = alloca ptr, align 8
  %9 = alloca ptr, align 8
  store ptr %0, ptr %6, align 8
  store ptr %1, ptr %7, align 8
  store ptr %2, ptr %8, align 8
  store ptr %3, ptr %9, align 8
  %10 = load ptr, ptr %6, align 8
  %11 = call i32 @tvb_reported_length(ptr noundef %10)
  %12 = icmp eq i32 %11, 14
  br i1 %12, label %17, label %13

13:                                               ; preds = %4
  %14 = load ptr, ptr %6, align 8
  %15 = call i32 @tvb_reported_length(ptr noundef %14)
  %16 = icmp eq i32 %15, 8
  br i1 %16, label %17, label %23

17:                                               ; preds = %13, %4
  %18 = load ptr, ptr %6, align 8
  %19 = load ptr, ptr %7, align 8
  %20 = load ptr, ptr %8, align 8
  %21 = load ptr, ptr %9, align 8
  %22 = call i32 @dissect_saphdb_tcp(ptr noundef %18, ptr noundef %19, ptr noundef %20, ptr noundef %21)
  store i32 %22, ptr %5, align 4
  br label %46

23:                                               ; preds = %13
  %24 = load ptr, ptr %6, align 8
  %25 = call i32 @tvb_bytes_exist(ptr noundef %24, i32 noundef 0, i32 noundef 32)
  %26 = icmp ne i32 %25, 0
  br i1 %26, label %28, label %27

27:                                               ; preds = %23
  store i32 0, ptr %5, align 4
  br label %46

28:                                               ; preds = %23
  %29 = load ptr, ptr %6, align 8
  %30 = call zeroext i8 @tvb_get_guint8(ptr noundef %29, i32 noundef 23)
  %31 = zext i8 %30 to i32
  %32 = icmp ne i32 %31, 0
  br i1 %32, label %37, label %33

33:                                               ; preds = %28
  %34 = load ptr, ptr %6, align 8
  %35 = call i32 @tvb_get_guint32(ptr noundef %34, i32 noundef 28, i32 noundef 0)
  %36 = icmp ne i32 %35, 0
  br i1 %36, label %37, label %38

37:                                               ; preds = %33, %28
  store i32 0, ptr %5, align 4
  br label %46

38:                                               ; preds = %33
  %39 = load ptr, ptr %6, align 8
  %40 = load ptr, ptr %7, align 8
  %41 = load ptr, ptr %8, align 8
  %42 = load ptr, ptr %9, align 8
  call void @tcp_dissect_pdus(ptr noundef %39, ptr noundef %40, ptr noundef %41, i32 noundef 1, i32 noundef 32, ptr noundef @get_saphdb_pdu_len, ptr noundef @dissect_saphdb_tcp, ptr noundef %42)
  br label %43

43:                                               ; preds = %38
  %44 = load ptr, ptr %6, align 8
  %45 = call i32 @tvb_reported_length(ptr noundef %44)
  store i32 %45, ptr %5, align 4
  br label %46

46:                                               ; preds = %43, %37, %27, %17
  %47 = load i32, ptr %5, align 4
  ret i32 %47
}