; Function Attrs: nounwind uwtable
define internal i32 @dissect_saphdb(ptr noundef %0, ptr noundef %1, ptr noundef %2, ptr noundef %3) #0 {
  %5 = tail call i32 @tvb_reported_length(ptr noundef %0) #3
  %6 = icmp eq i32 %5, 14
  br i1 %6, label %10, label %7

7:                                                ; preds = %4
  %8 = tail call i32 @tvb_reported_length(ptr noundef %0) #3
  %9 = icmp eq i32 %8, 8
  br i1 %9, label %10, label %12

10:                                               ; preds = %7, %4
  %11 = tail call i32 @dissect_saphdb_tcp(ptr noundef %0, ptr noundef %1, ptr noundef %2, ptr poison)
  br label %20

12:                                               ; preds = %7
  %13 = tail call i32 @tvb_bytes_exist(ptr noundef %0, i32 noundef 0, i32 noundef 32) #3
  %.not = icmp eq i32 %13, 0
  br i1 %.not, label %20, label %14

14:                                               ; preds = %12
  %15 = tail call zeroext i8 @tvb_get_guint8(ptr noundef %0, i32 noundef 23) #3
  %.not14 = icmp eq i8 %15, 0
  br i1 %.not14, label %16, label %20

16:                                               ; preds = %14
  %17 = tail call i32 @tvb_get_guint32(ptr noundef %0, i32 noundef 28, i32 noundef 0) #3
  %.not15 = icmp eq i32 %17, 0
  br i1 %.not15, label %18, label %20

18:                                               ; preds = %16
  tail call void @tcp_dissect_pdus(ptr noundef %0, ptr noundef %1, ptr noundef %2, i32 noundef 1, i32 noundef 32, ptr noundef nonnull @get_saphdb_pdu_len, ptr noundef nonnull @dissect_saphdb_tcp, ptr noundef %3) #3
  %19 = tail call i32 @tvb_reported_length(ptr noundef %0) #3
  br label %20

20:                                               ; preds = %14, %16, %12, %18, %10
  %.0 = phi i32 [ %11, %10 ], [ %19, %18 ], [ 0, %12 ], [ 0, %16 ], [ 0, %14 ]
  ret i32 %.0
}